; Function Attrs: nounwind uwtable
define internal fastcc void @addHashIteratorCursorToReply(ptr noundef %0, ptr noundef readonly captures(none) %1, i32 noundef range(i32 1, 3) %2) unnamed_addr #1 {
  %4 = alloca i32, align 4
  %5 = alloca i64, align 8
  %6 = getelementptr inbounds nuw i8, ptr %1, i64 8
  %7 = load i32, ptr %6, align 8, !tbaa !113
  switch i32 %7, label %49 [
    i32 11, label %hashTypeCurrentFromListpack.exit
    i32 12, label %hashTypeCurrentFromListpack.exit
    i32 2, label %18
  ]

hashTypeCurrentFromListpack.exit:                 ; preds = %3, %3
  call void @llvm.lifetime.start.p0(i64 4, ptr nonnull %4) #16
  store i32 -1, ptr %4, align 4, !tbaa !65
  call void @llvm.lifetime.start.p0(i64 8, ptr nonnull %5) #16
  store i64 9223372036854775807, ptr %5, align 8, !tbaa !24
  %8 = and i32 %2, 1
  %.not.i = icmp eq i32 %8, 0
  %..i = select i1 %.not.i, i64 24, i64 16
  %9 = getelementptr inbounds nuw i8, ptr %1, i64 %..i
  %10 = load ptr, ptr %9, align 8, !tbaa !85
  %11 = call ptr @lpGetValue(ptr noundef %10, ptr noundef nonnull %4, ptr noundef nonnull %5) #16
  %.not = icmp eq ptr %11, null
  br i1 %.not, label %15, label %12

12:                                               ; preds = %hashTypeCurrentFromListpack.exit
  %13 = load i32, ptr %4, align 4, !tbaa !65
  %14 = zext i32 %13 to i64
  call void @addReplyBulkCBuffer(ptr noundef %0, ptr noundef nonnull %11, i64 noundef %14) #16
  br label %17

15:                                               ; preds = %hashTypeCurrentFromListpack.exit
  %16 = load i64, ptr %5, align 8, !tbaa !24
  call void @addReplyBulkLongLong(ptr noundef %0, i64 noundef %16) #16
  br label %17

17:                                               ; preds = %15, %12
  call void @llvm.lifetime.end.p0(i64 8, ptr nonnull %5) #16
  call void @llvm.lifetime.end.p0(i64 4, ptr nonnull %4) #16
  br label %50

18:                                               ; preds = %3
  %19 = and i32 %2, 1
  %.not.i10 = icmp eq i32 %19, 0
  %20 = getelementptr inbounds nuw i8, ptr %1, i64 56
  %21 = load ptr, ptr %20, align 8, !tbaa !116
  br i1 %.not.i10, label %25, label %22

22:                                               ; preds = %18
  %23 = tail call ptr @dictGetKey(ptr noundef %21) #16
  %24 = tail call i64 @mstrlen(ptr noundef %23) #16
  br label %hashTypeCurrentFromHashTable.exit

25:                                               ; preds = %18
  %26 = tail call ptr @dictGetVal(ptr noundef %21) #16
  %27 = getelementptr inbounds i8, ptr %26, i64 -1
  %28 = load i8, ptr %27, align 1, !tbaa !5
  %29 = zext i8 %28 to i32
  %30 = and i32 %29, 7
  switch i32 %30, label %hashTypeCurrentFromHashTable.exit [
    i32 0, label %31
    i32 1, label %34
    i32 2, label %38
    i32 3, label %42
    i32 4, label %46
  ]

31:                                               ; preds = %25
  %32 = lshr i32 %29, 3
  %33 = zext nneg i32 %32 to i64
  br label %hashTypeCurrentFromHashTable.exit

34:                                               ; preds = %25
  %35 = getelementptr inbounds i8, ptr %26, i64 -3
  %36 = load i8, ptr %35, align 1, !tbaa !5
  %37 = zext i8 %36 to i64
  br label %hashTypeCurrentFromHashTable.exit

38:                                               ; preds = %25
  %39 = getelementptr inbounds i8, ptr %26, i64 -5
  %40 = load i16, ptr %39, align 1, !tbaa !8
  %41 = zext i16 %40 to i64
  br label %hashTypeCurrentFromHashTable.exit

42:                                               ; preds = %25
  %43 = getelementptr inbounds i8, ptr %26, i64 -9
  %44 = load i32, ptr %43, align 1, !tbaa !65
  %45 = zext i32 %44 to i64
  br label %hashTypeCurrentFromHashTable.exit

46:                                               ; preds = %25
  %47 = getelementptr inbounds i8, ptr %26, i64 -17
  %48 = load i64, ptr %47, align 1, !tbaa !28
  br label %hashTypeCurrentFromHashTable.exit

hashTypeCurrentFromHashTable.exit:                ; preds = %22, %25, %31, %34, %38, %42, %46
  %.0 = phi ptr [ %26, %25 ], [ %26, %46 ], [ %26, %42 ], [ %26, %38 ], [ %26, %34 ], [ %26, %31 ], [ %23, %22 ]
  %storemerge.i = phi i64 [ 0, %25 ], [ %48, %46 ], [ %45, %42 ], [ %41, %38 ], [ %37, %34 ], [ %33, %31 ], [ %24, %22 ]
  tail call void @addReplyBulkCBuffer(ptr noundef %0, ptr noundef %.0, i64 noundef %storemerge.i) #16
  br label %50

49:                                               ; preds = %3
  tail call void (ptr, i32, ptr, ...) @_serverPanic(ptr noundef nonnull @.str.2, i32 noundef 3013, ptr noundef nonnull @.str.11) #16
  tail call void @abort() #17
  unreachable

50:                                               ; preds = %hashTypeCurrentFromHashTable.exit, %17
  ret void
}